ARM GAS  C:\Users\dan\AppData\Local\Temp\ccTyD7iX.s 			page 1


   1              		.syntax unified
   2              		.cpu cortex-m3
   3              		.fpu softvfp
   4              		.eabi_attribute 20, 1
   5              		.eabi_attribute 21, 1
   6              		.eabi_attribute 23, 3
   7              		.eabi_attribute 24, 1
   8              		.eabi_attribute 25, 1
   9              		.eabi_attribute 26, 1
  10              		.eabi_attribute 30, 1
  11              		.eabi_attribute 34, 1
  12              		.eabi_attribute 18, 4
  13              		.thumb
  14              		.syntax unified
  15              		.file	"ds1302.c"
  16              		.text
  17              	.Ltext0:
  18              		.cfi_sections	.debug_frame
  19              		.section	.text.data_read,"ax",%progbits
  20              		.align	2
  21              		.global	data_read
  22              		.thumb
  23              		.thumb_func
  24              		.type	data_read, %function
  25              	data_read:
  26              	.LFB63:
  27              		.file 1 "ds1302.c"
   1:ds1302.c      **** #include "ds1302.h"
   2:ds1302.c      **** 
   3:ds1302.c      **** 
   4:ds1302.c      **** char data_read(unsigned char data_out)
   5:ds1302.c      **** {
  28              		.loc 1 5 0
  29              		.cfi_startproc
  30              		@ args = 0, pretend = 0, frame = 0
  31              		@ frame_needed = 0, uses_anonymous_args = 0
  32              	.LVL0:
  33 0000 38B5     		push	{r3, r4, r5, lr}
  34              		.cfi_def_cfa_offset 16
  35              		.cfi_offset 3, -16
  36              		.cfi_offset 4, -12
  37              		.cfi_offset 5, -8
  38              		.cfi_offset 14, -4
  39 0002 0546     		mov	r5, r0
  40              	.LVL1:
   6:ds1302.c      ****     char tmp;
   7:ds1302.c      ****     char tmp2;
   8:ds1302.c      ****     char data_in = 0;
   9:ds1302.c      ****     uint8 i;
  10:ds1302.c      ****     uint8 j;
  11:ds1302.c      ****     dat_Write(1);
  41              		.loc 1 11 0
  42 0004 0120     		movs	r0, #1
  43              	.LVL2:
  44 0006 FFF7FEFF 		bl	dat_Write
  45              	.LVL3:
  12:ds1302.c      ****     ce_Write(1);
ARM GAS  C:\Users\dan\AppData\Local\Temp\ccTyD7iX.s 			page 2


  46              		.loc 1 12 0
  47 000a 0120     		movs	r0, #1
  48 000c FFF7FEFF 		bl	ce_Write
  49              	.LVL4:
  13:ds1302.c      ****     sclk_Write(0);
  50              		.loc 1 13 0
  51 0010 0020     		movs	r0, #0
  52 0012 FFF7FEFF 		bl	sclk_Write
  53              	.LVL5:
  14:ds1302.c      ****     for(i=8;i>=1;i--)
  54              		.loc 1 14 0
  55 0016 0824     		movs	r4, #8
  56 0018 1BE0     		b	.L2
  57              	.LVL6:
  58              	.L3:
  15:ds1302.c      ****         {
  16:ds1302.c      ****          tmp2 = (data_out >> (8-i)) & 0x01;
  59              		.loc 1 16 0 discriminator 3
  60 001a C4F10800 		rsb	r0, r4, #8
  61 001e 45FA00F0 		asr	r0, r5, r0
  62              	.LVL7:
  17:ds1302.c      ****          dat_Write(tmp2);
  63              		.loc 1 17 0 discriminator 3
  64 0022 00F00100 		and	r0, r0, #1
  65              	.LVL8:
  66 0026 FFF7FEFF 		bl	dat_Write
  67              	.LVL9:
  18:ds1302.c      ****          CyDelay(1); 
  68              		.loc 1 18 0 discriminator 3
  69 002a 0120     		movs	r0, #1
  70 002c FFF7FEFF 		bl	CyDelay
  71              	.LVL10:
  19:ds1302.c      ****          sclk_Write(1);
  72              		.loc 1 19 0 discriminator 3
  73 0030 0120     		movs	r0, #1
  74 0032 FFF7FEFF 		bl	sclk_Write
  75              	.LVL11:
  20:ds1302.c      ****          CyDelayUs(10);
  76              		.loc 1 20 0 discriminator 3
  77 0036 0A20     		movs	r0, #10
  78 0038 FFF7FEFF 		bl	CyDelayUs
  79              	.LVL12:
  21:ds1302.c      ****          dat_Write(0);
  80              		.loc 1 21 0 discriminator 3
  81 003c 0020     		movs	r0, #0
  82 003e FFF7FEFF 		bl	dat_Write
  83              	.LVL13:
  22:ds1302.c      ****          CyDelay(1);
  84              		.loc 1 22 0 discriminator 3
  85 0042 0120     		movs	r0, #1
  86 0044 FFF7FEFF 		bl	CyDelay
  87              	.LVL14:
  23:ds1302.c      ****          sclk_Write(0);
  88              		.loc 1 23 0 discriminator 3
  89 0048 0020     		movs	r0, #0
  90 004a FFF7FEFF 		bl	sclk_Write
  91              	.LVL15:
ARM GAS  C:\Users\dan\AppData\Local\Temp\ccTyD7iX.s 			page 3


  14:ds1302.c      ****         {
  92              		.loc 1 14 0 discriminator 3
  93 004e 013C     		subs	r4, r4, #1
  94              	.LVL16:
  95 0050 E4B2     		uxtb	r4, r4
  96              	.LVL17:
  97              	.L2:
  14:ds1302.c      ****         {
  98              		.loc 1 14 0 is_stmt 0 discriminator 1
  99 0052 002C     		cmp	r4, #0
 100 0054 E1D1     		bne	.L3
 101 0056 0824     		movs	r4, #8
 102              	.LVL18:
 103 0058 0025     		movs	r5, #0
 104 005a 14E0     		b	.L4
 105              	.LVL19:
 106              	.L5:
  24:ds1302.c      ****         }
  25:ds1302.c      ****     for(j=8;j>=1;j--)
  26:ds1302.c      ****         {
  27:ds1302.c      ****         tmp = dat_Read();
 107              		.loc 1 27 0 is_stmt 1 discriminator 3
 108 005c FFF7FEFF 		bl	dat_Read
 109              	.LVL20:
  28:ds1302.c      ****         data_in |= (tmp << (8-j)); 
 110              		.loc 1 28 0 discriminator 3
 111 0060 C4F10803 		rsb	r3, r4, #8
 112 0064 9840     		lsls	r0, r0, r3
 113              	.LVL21:
 114 0066 0543     		orrs	r5, r5, r0
 115              	.LVL22:
 116 0068 EDB2     		uxtb	r5, r5
 117              	.LVL23:
  29:ds1302.c      ****         CyDelay(1);
 118              		.loc 1 29 0 discriminator 3
 119 006a 0120     		movs	r0, #1
 120 006c FFF7FEFF 		bl	CyDelay
 121              	.LVL24:
  30:ds1302.c      ****         sclk_Write(1);
 122              		.loc 1 30 0 discriminator 3
 123 0070 0120     		movs	r0, #1
 124 0072 FFF7FEFF 		bl	sclk_Write
 125              	.LVL25:
  31:ds1302.c      ****         CyDelay(1);
 126              		.loc 1 31 0 discriminator 3
 127 0076 0120     		movs	r0, #1
 128 0078 FFF7FEFF 		bl	CyDelay
 129              	.LVL26:
  32:ds1302.c      ****         sclk_Write(0);
 130              		.loc 1 32 0 discriminator 3
 131 007c 0020     		movs	r0, #0
 132 007e FFF7FEFF 		bl	sclk_Write
 133              	.LVL27:
  25:ds1302.c      ****         {
 134              		.loc 1 25 0 discriminator 3
 135 0082 013C     		subs	r4, r4, #1
 136              	.LVL28:
ARM GAS  C:\Users\dan\AppData\Local\Temp\ccTyD7iX.s 			page 4


 137 0084 E4B2     		uxtb	r4, r4
 138              	.LVL29:
 139              	.L4:
  25:ds1302.c      ****         {
 140              		.loc 1 25 0 is_stmt 0 discriminator 1
 141 0086 002C     		cmp	r4, #0
 142 0088 E8D1     		bne	.L5
  33:ds1302.c      ****         }
  34:ds1302.c      ****     ce_Write(0);
 143              		.loc 1 34 0 is_stmt 1
 144 008a 0020     		movs	r0, #0
 145 008c FFF7FEFF 		bl	ce_Write
 146              	.LVL30:
  35:ds1302.c      ****     sclk_Write(0);
 147              		.loc 1 35 0
 148 0090 0020     		movs	r0, #0
 149 0092 FFF7FEFF 		bl	sclk_Write
 150              	.LVL31:
  36:ds1302.c      ****     CyDelayUs(10);
 151              		.loc 1 36 0
 152 0096 0A20     		movs	r0, #10
 153 0098 FFF7FEFF 		bl	CyDelayUs
 154              	.LVL32:
  37:ds1302.c      ****     dat_Write(0);
 155              		.loc 1 37 0
 156 009c 0020     		movs	r0, #0
 157 009e FFF7FEFF 		bl	dat_Write
 158              	.LVL33:
  38:ds1302.c      ****     i=0;
  39:ds1302.c      ****     j=0;
  40:ds1302.c      ****     return data_in;
  41:ds1302.c      **** }
 159              		.loc 1 41 0
 160 00a2 2846     		mov	r0, r5
 161 00a4 38BD     		pop	{r3, r4, r5, pc}
 162              		.cfi_endproc
 163              	.LFE63:
 164              		.size	data_read, .-data_read
 165 00a6 00BF     		.section	.text.data_write,"ax",%progbits
 166              		.align	2
 167              		.global	data_write
 168              		.thumb
 169              		.thumb_func
 170              		.type	data_write, %function
 171              	data_write:
 172              	.LFB64:
  42:ds1302.c      **** void data_write(unsigned char reg_add, unsigned char data_out)
  43:ds1302.c      **** {
 173              		.loc 1 43 0
 174              		.cfi_startproc
 175              		@ args = 0, pretend = 0, frame = 0
 176              		@ frame_needed = 0, uses_anonymous_args = 0
 177              	.LVL34:
 178 0000 70B5     		push	{r4, r5, r6, lr}
 179              		.cfi_def_cfa_offset 16
 180              		.cfi_offset 4, -16
 181              		.cfi_offset 5, -12
ARM GAS  C:\Users\dan\AppData\Local\Temp\ccTyD7iX.s 			page 5


 182              		.cfi_offset 6, -8
 183              		.cfi_offset 14, -4
 184 0002 0646     		mov	r6, r0
 185 0004 0D46     		mov	r5, r1
  44:ds1302.c      ****     char tmp;
  45:ds1302.c      ****     char tmp2;
  46:ds1302.c      ****     uint8 i;
  47:ds1302.c      ****     uint8 j;
  48:ds1302.c      ****     ce_Write(1);
 186              		.loc 1 48 0
 187 0006 0120     		movs	r0, #1
 188              	.LVL35:
 189 0008 FFF7FEFF 		bl	ce_Write
 190              	.LVL36:
  49:ds1302.c      ****     sclk_Write(0);
 191              		.loc 1 49 0
 192 000c 0020     		movs	r0, #0
 193 000e FFF7FEFF 		bl	sclk_Write
 194              	.LVL37:
  50:ds1302.c      ****     for(i=8;i>=1;i--)
 195              		.loc 1 50 0
 196 0012 0824     		movs	r4, #8
 197 0014 1BE0     		b	.L8
 198              	.LVL38:
 199              	.L9:
  51:ds1302.c      ****         {
  52:ds1302.c      ****          tmp2 = (reg_add >> (8-i)) & 0x01;
 200              		.loc 1 52 0 discriminator 3
 201 0016 C4F10800 		rsb	r0, r4, #8
 202 001a 46FA00F0 		asr	r0, r6, r0
 203              	.LVL39:
  53:ds1302.c      ****          dat_Write(tmp2);
 204              		.loc 1 53 0 discriminator 3
 205 001e 00F00100 		and	r0, r0, #1
 206              	.LVL40:
 207 0022 FFF7FEFF 		bl	dat_Write
 208              	.LVL41:
  54:ds1302.c      ****          CyDelayUs(10);
 209              		.loc 1 54 0 discriminator 3
 210 0026 0A20     		movs	r0, #10
 211 0028 FFF7FEFF 		bl	CyDelayUs
 212              	.LVL42:
  55:ds1302.c      ****          sclk_Write(1);
 213              		.loc 1 55 0 discriminator 3
 214 002c 0120     		movs	r0, #1
 215 002e FFF7FEFF 		bl	sclk_Write
 216              	.LVL43:
  56:ds1302.c      ****          CyDelay(1);
 217              		.loc 1 56 0 discriminator 3
 218 0032 0120     		movs	r0, #1
 219 0034 FFF7FEFF 		bl	CyDelay
 220              	.LVL44:
  57:ds1302.c      ****          dat_Write(0); 
 221              		.loc 1 57 0 discriminator 3
 222 0038 0020     		movs	r0, #0
 223 003a FFF7FEFF 		bl	dat_Write
 224              	.LVL45:
ARM GAS  C:\Users\dan\AppData\Local\Temp\ccTyD7iX.s 			page 6


  58:ds1302.c      ****          sclk_Write(0);
 225              		.loc 1 58 0 discriminator 3
 226 003e 0020     		movs	r0, #0
 227 0040 FFF7FEFF 		bl	sclk_Write
 228              	.LVL46:
  59:ds1302.c      ****          CyDelay(1); 
 229              		.loc 1 59 0 discriminator 3
 230 0044 0120     		movs	r0, #1
 231 0046 FFF7FEFF 		bl	CyDelay
 232              	.LVL47:
  50:ds1302.c      ****         {
 233              		.loc 1 50 0 discriminator 3
 234 004a 013C     		subs	r4, r4, #1
 235              	.LVL48:
 236 004c E4B2     		uxtb	r4, r4
 237              	.LVL49:
 238              	.L8:
  50:ds1302.c      ****         {
 239              		.loc 1 50 0 is_stmt 0 discriminator 1
 240 004e 002C     		cmp	r4, #0
 241 0050 E1D1     		bne	.L9
 242 0052 0824     		movs	r4, #8
 243              	.LVL50:
 244 0054 1BE0     		b	.L10
 245              	.LVL51:
 246              	.L11:
  60:ds1302.c      ****         }
  61:ds1302.c      **** 
  62:ds1302.c      ****     for(j=8;j>=1;j--)
  63:ds1302.c      ****         {
  64:ds1302.c      ****         tmp = (data_out >> (8-j)) & 0x01;
 247              		.loc 1 64 0 is_stmt 1 discriminator 3
 248 0056 C4F10800 		rsb	r0, r4, #8
 249 005a 45FA00F0 		asr	r0, r5, r0
 250              	.LVL52:
  65:ds1302.c      ****         dat_Write(tmp);
 251              		.loc 1 65 0 discriminator 3
 252 005e 00F00100 		and	r0, r0, #1
 253              	.LVL53:
 254 0062 FFF7FEFF 		bl	dat_Write
 255              	.LVL54:
  66:ds1302.c      ****         CyDelayUs(10);
 256              		.loc 1 66 0 discriminator 3
 257 0066 0A20     		movs	r0, #10
 258 0068 FFF7FEFF 		bl	CyDelayUs
 259              	.LVL55:
  67:ds1302.c      ****         sclk_Write(1);
 260              		.loc 1 67 0 discriminator 3
 261 006c 0120     		movs	r0, #1
 262 006e FFF7FEFF 		bl	sclk_Write
 263              	.LVL56:
  68:ds1302.c      ****         CyDelay(1);
 264              		.loc 1 68 0 discriminator 3
 265 0072 0120     		movs	r0, #1
 266 0074 FFF7FEFF 		bl	CyDelay
 267              	.LVL57:
  69:ds1302.c      ****         dat_Write(0);
ARM GAS  C:\Users\dan\AppData\Local\Temp\ccTyD7iX.s 			page 7


 268              		.loc 1 69 0 discriminator 3
 269 0078 0020     		movs	r0, #0
 270 007a FFF7FEFF 		bl	dat_Write
 271              	.LVL58:
  70:ds1302.c      ****         sclk_Write(0);
 272              		.loc 1 70 0 discriminator 3
 273 007e 0020     		movs	r0, #0
 274 0080 FFF7FEFF 		bl	sclk_Write
 275              	.LVL59:
  71:ds1302.c      ****         CyDelay(1); 
 276              		.loc 1 71 0 discriminator 3
 277 0084 0120     		movs	r0, #1
 278 0086 FFF7FEFF 		bl	CyDelay
 279              	.LVL60:
  62:ds1302.c      ****         {
 280              		.loc 1 62 0 discriminator 3
 281 008a 013C     		subs	r4, r4, #1
 282              	.LVL61:
 283 008c E4B2     		uxtb	r4, r4
 284              	.LVL62:
 285              	.L10:
  62:ds1302.c      ****         {
 286              		.loc 1 62 0 is_stmt 0 discriminator 1
 287 008e 002C     		cmp	r4, #0
 288 0090 E1D1     		bne	.L11
  72:ds1302.c      ****         }
  73:ds1302.c      ****     ce_Write(0);
 289              		.loc 1 73 0 is_stmt 1
 290 0092 0020     		movs	r0, #0
 291 0094 FFF7FEFF 		bl	ce_Write
 292              	.LVL63:
  74:ds1302.c      ****     CyDelayUs(10);
 293              		.loc 1 74 0
 294 0098 0A20     		movs	r0, #10
 295 009a FFF7FEFF 		bl	CyDelayUs
 296              	.LVL64:
  75:ds1302.c      ****     sclk_Write(0);
 297              		.loc 1 75 0
 298 009e 0020     		movs	r0, #0
 299 00a0 FFF7FEFF 		bl	sclk_Write
 300              	.LVL65:
  76:ds1302.c      ****     dat_Write(0);
 301              		.loc 1 76 0
 302 00a4 0020     		movs	r0, #0
 303 00a6 FFF7FEFF 		bl	dat_Write
 304              	.LVL66:
 305 00aa 70BD     		pop	{r4, r5, r6, pc}
 306              		.cfi_endproc
 307              	.LFE64:
 308              		.size	data_write, .-data_write
 309              		.section	.text.DS1302_Start,"ax",%progbits
 310              		.align	2
 311              		.global	DS1302_Start
 312              		.thumb
 313              		.thumb_func
 314              		.type	DS1302_Start, %function
 315              	DS1302_Start:
ARM GAS  C:\Users\dan\AppData\Local\Temp\ccTyD7iX.s 			page 8


 316              	.LFB65:
  77:ds1302.c      ****     i=0;
  78:ds1302.c      ****     j=0;
  79:ds1302.c      **** }
  80:ds1302.c      **** void DS1302_Start(){
 317              		.loc 1 80 0
 318              		.cfi_startproc
 319              		@ args = 0, pretend = 0, frame = 0
 320              		@ frame_needed = 0, uses_anonymous_args = 0
 321 0000 08B5     		push	{r3, lr}
 322              		.cfi_def_cfa_offset 8
 323              		.cfi_offset 3, -8
 324              		.cfi_offset 14, -4
  81:ds1302.c      **** data_write(0x80,0x00);
 325              		.loc 1 81 0
 326 0002 0021     		movs	r1, #0
 327 0004 8020     		movs	r0, #128
 328 0006 FFF7FEFF 		bl	data_write
 329              	.LVL67:
  82:ds1302.c      **** data_write(0x8E,0x80);
 330              		.loc 1 82 0
 331 000a 8021     		movs	r1, #128
 332 000c 8E20     		movs	r0, #142
 333 000e FFF7FEFF 		bl	data_write
 334              	.LVL68:
 335 0012 08BD     		pop	{r3, pc}
 336              		.cfi_endproc
 337              	.LFE65:
 338              		.size	DS1302_Start, .-DS1302_Start
 339              		.section	.text.DS1302_Write_Time,"ax",%progbits
 340              		.align	2
 341              		.global	DS1302_Write_Time
 342              		.thumb
 343              		.thumb_func
 344              		.type	DS1302_Write_Time, %function
 345              	DS1302_Write_Time:
 346              	.LFB66:
  83:ds1302.c      **** }
  84:ds1302.c      **** void DS1302_Write_Time(Time Time){
 347              		.loc 1 84 0
 348              		.cfi_startproc
 349              		@ args = 0, pretend = 0, frame = 8
 350              		@ frame_needed = 0, uses_anonymous_args = 0
 351 0000 00B5     		push	{lr}
 352              		.cfi_def_cfa_offset 4
 353              		.cfi_offset 14, -4
 354 0002 83B0     		sub	sp, sp, #12
 355              		.cfi_def_cfa_offset 16
 356 0004 02AB     		add	r3, sp, #8
 357 0006 03E90300 		stmdb	r3, {r0, r1}
  85:ds1302.c      ****     data_write(0x8E,0x00);
 358              		.loc 1 85 0
 359 000a 0021     		movs	r1, #0
 360 000c 8E20     		movs	r0, #142
 361 000e FFF7FEFF 		bl	data_write
 362              	.LVL69:
  86:ds1302.c      ****     data_write(0x80,Time.second);
ARM GAS  C:\Users\dan\AppData\Local\Temp\ccTyD7iX.s 			page 9


 363              		.loc 1 86 0
 364 0012 9DF80010 		ldrb	r1, [sp]	@ zero_extendqisi2
 365 0016 8020     		movs	r0, #128
 366 0018 FFF7FEFF 		bl	data_write
 367              	.LVL70:
  87:ds1302.c      ****     data_write(0x82,Time.minute);
 368              		.loc 1 87 0
 369 001c 9DF80110 		ldrb	r1, [sp, #1]	@ zero_extendqisi2
 370 0020 8220     		movs	r0, #130
 371 0022 FFF7FEFF 		bl	data_write
 372              	.LVL71:
  88:ds1302.c      ****     data_write(0x84,Time.hour);
 373              		.loc 1 88 0
 374 0026 9DF80210 		ldrb	r1, [sp, #2]	@ zero_extendqisi2
 375 002a 8420     		movs	r0, #132
 376 002c FFF7FEFF 		bl	data_write
 377              	.LVL72:
  89:ds1302.c      ****     data_write(0x86,Time.date);
 378              		.loc 1 89 0
 379 0030 9DF80310 		ldrb	r1, [sp, #3]	@ zero_extendqisi2
 380 0034 8620     		movs	r0, #134
 381 0036 FFF7FEFF 		bl	data_write
 382              	.LVL73:
  90:ds1302.c      ****     data_write(0x88,Time.month);
 383              		.loc 1 90 0
 384 003a 9DF80410 		ldrb	r1, [sp, #4]	@ zero_extendqisi2
 385 003e 8820     		movs	r0, #136
 386 0040 FFF7FEFF 		bl	data_write
 387              	.LVL74:
  91:ds1302.c      ****     data_write(0x8a,Time.day_of_week);
 388              		.loc 1 91 0
 389 0044 9DF80510 		ldrb	r1, [sp, #5]	@ zero_extendqisi2
 390 0048 8A20     		movs	r0, #138
 391 004a FFF7FEFF 		bl	data_write
 392              	.LVL75:
  92:ds1302.c      ****     data_write(0x8c,Time.year);
 393              		.loc 1 92 0
 394 004e 9DF80610 		ldrb	r1, [sp, #6]	@ zero_extendqisi2
 395 0052 8C20     		movs	r0, #140
 396 0054 FFF7FEFF 		bl	data_write
 397              	.LVL76:
  93:ds1302.c      ****     data_write(0x8E,0x80);
 398              		.loc 1 93 0
 399 0058 8021     		movs	r1, #128
 400 005a 8E20     		movs	r0, #142
 401 005c FFF7FEFF 		bl	data_write
 402              	.LVL77:
  94:ds1302.c      **** }
 403              		.loc 1 94 0
 404 0060 03B0     		add	sp, sp, #12
 405              		.cfi_def_cfa_offset 4
 406              		@ sp needed
 407 0062 5DF804FB 		ldr	pc, [sp], #4
 408              		.cfi_endproc
 409              	.LFE66:
 410              		.size	DS1302_Write_Time, .-DS1302_Write_Time
 411 0066 00BF     		.section	.text.DS1302_Read_Time,"ax",%progbits
ARM GAS  C:\Users\dan\AppData\Local\Temp\ccTyD7iX.s 			page 10


 412              		.align	2
 413              		.global	DS1302_Read_Time
 414              		.thumb
 415              		.thumb_func
 416              		.type	DS1302_Read_Time, %function
 417              	DS1302_Read_Time:
 418              	.LFB67:
  95:ds1302.c      **** 
  96:ds1302.c      **** void DS1302_Read_Time(Time *Time){
 419              		.loc 1 96 0
 420              		.cfi_startproc
 421              		@ args = 0, pretend = 0, frame = 0
 422              		@ frame_needed = 0, uses_anonymous_args = 0
 423              	.LVL78:
 424 0000 10B5     		push	{r4, lr}
 425              		.cfi_def_cfa_offset 8
 426              		.cfi_offset 4, -8
 427              		.cfi_offset 14, -4
 428 0002 0446     		mov	r4, r0
  97:ds1302.c      ****     Time -> second = data_read(0x81);
 429              		.loc 1 97 0
 430 0004 8120     		movs	r0, #129
 431              	.LVL79:
 432 0006 FFF7FEFF 		bl	data_read
 433              	.LVL80:
 434 000a 2070     		strb	r0, [r4]
  98:ds1302.c      ****     Time -> minute = data_read(0x83);
 435              		.loc 1 98 0
 436 000c 8320     		movs	r0, #131
 437 000e FFF7FEFF 		bl	data_read
 438              	.LVL81:
 439 0012 6070     		strb	r0, [r4, #1]
  99:ds1302.c      ****     Time -> hour = data_read(0x85) & 0x7f ;
 440              		.loc 1 99 0
 441 0014 8520     		movs	r0, #133
 442 0016 FFF7FEFF 		bl	data_read
 443              	.LVL82:
 444 001a 00F07F00 		and	r0, r0, #127
 445 001e A070     		strb	r0, [r4, #2]
 100:ds1302.c      ****     Time -> date = data_read(0x87);
 446              		.loc 1 100 0
 447 0020 8720     		movs	r0, #135
 448 0022 FFF7FEFF 		bl	data_read
 449              	.LVL83:
 450 0026 E070     		strb	r0, [r4, #3]
 101:ds1302.c      ****     Time -> month = data_read(0x89);
 451              		.loc 1 101 0
 452 0028 8920     		movs	r0, #137
 453 002a FFF7FEFF 		bl	data_read
 454              	.LVL84:
 455 002e 2071     		strb	r0, [r4, #4]
 102:ds1302.c      ****     Time -> day_of_week = data_read(0x8b);
 456              		.loc 1 102 0
 457 0030 8B20     		movs	r0, #139
 458 0032 FFF7FEFF 		bl	data_read
 459              	.LVL85:
 460 0036 6071     		strb	r0, [r4, #5]
ARM GAS  C:\Users\dan\AppData\Local\Temp\ccTyD7iX.s 			page 11


 103:ds1302.c      ****     Time -> year = data_read(0x8d);
 461              		.loc 1 103 0
 462 0038 8D20     		movs	r0, #141
 463 003a FFF7FEFF 		bl	data_read
 464              	.LVL86:
 465 003e A071     		strb	r0, [r4, #6]
 466 0040 10BD     		pop	{r4, pc}
 467              		.cfi_endproc
 468              	.LFE67:
 469              		.size	DS1302_Read_Time, .-DS1302_Read_Time
 470 0042 00BF     		.section	.text.DS1302_Update_Time,"ax",%progbits
 471              		.align	2
 472              		.global	DS1302_Update_Time
 473              		.thumb
 474              		.thumb_func
 475              		.type	DS1302_Update_Time, %function
 476              	DS1302_Update_Time:
 477              	.LFB68:
 104:ds1302.c      **** }
 105:ds1302.c      **** 
 106:ds1302.c      **** void DS1302_Update_Time(){
 478              		.loc 1 106 0
 479              		.cfi_startproc
 480              		@ args = 0, pretend = 0, frame = 0
 481              		@ frame_needed = 0, uses_anonymous_args = 0
 482 0000 08B5     		push	{r3, lr}
 483              		.cfi_def_cfa_offset 8
 484              		.cfi_offset 3, -8
 485              		.cfi_offset 14, -4
 107:ds1302.c      ****     Time Time;
 108:ds1302.c      ****     Time.hour = ((__TIME__[0]) - '0') << 4  ;
 109:ds1302.c      ****     Time.hour |= __TIME__[1] - '0';
 110:ds1302.c      ****     Time.minute = ((__TIME__[3]) - '0') << 4  ;
 111:ds1302.c      ****     Time.minute |= __TIME__[4] - '0';
 112:ds1302.c      ****     Time.second = ((__TIME__[6]) - '0') << 4  ;
 113:ds1302.c      ****     Time.second |= __TIME__[7] - '0';
 114:ds1302.c      ****     Time.date = ((__DATE__[4]) - '0') << 4  ;
 115:ds1302.c      ****     Time.date |= __DATE__[5] - '0';
 116:ds1302.c      ****     Time.year = ((__DATE__[9]) - '0') << 4  ;
 117:ds1302.c      ****     Time.year |= ((__DATE__[10]) - '0');
 118:ds1302.c      ****     
 119:ds1302.c      ****     if (__DATE__[0] == 'J' && __DATE__[1] == 'a' && __DATE__[2] == 'n'){
 120:ds1302.c      ****     Time.month = 1;
 121:ds1302.c      ****     }
 122:ds1302.c      ****     else if (__DATE__[0] == 'F'){
 123:ds1302.c      ****     Time.month = 2;
 124:ds1302.c      ****     }
 125:ds1302.c      ****     else if (__DATE__[0] == 'M' && __DATE__[1] == 'a' && __DATE__[2] == 'r'){
 126:ds1302.c      ****     Time.month = 3;
 127:ds1302.c      ****     }
 128:ds1302.c      ****     else if (__DATE__[0] == 'A' && __DATE__[1] == 'p'){
 129:ds1302.c      ****     Time.month = 4;
 130:ds1302.c      ****     }
 131:ds1302.c      ****     else if(__DATE__[0] == 'M' && __DATE__[1] == 'a' && __DATE__[2] == 'y'){
 132:ds1302.c      ****     Time.month = 5;
 133:ds1302.c      ****     }
 134:ds1302.c      ****     else if(__DATE__[0] == 'J' && __DATE__[1] == 'u' && __DATE__[2] == 'n'){
ARM GAS  C:\Users\dan\AppData\Local\Temp\ccTyD7iX.s 			page 12


 135:ds1302.c      ****     Time.month = 6;
 136:ds1302.c      ****     }
 137:ds1302.c      ****     else if (__DATE__[0] == 'J' && __DATE__[1] == 'u' && __DATE__[2] == 'l'){
 138:ds1302.c      ****     Time.month = 7;
 139:ds1302.c      ****     }
 140:ds1302.c      ****     else if (__DATE__[0] == 'A' && __DATE__[1] == 'u'){
 141:ds1302.c      ****     Time.month = 8;
 142:ds1302.c      ****     }
 143:ds1302.c      ****     else if (__DATE__[0] == 'S'){
 144:ds1302.c      ****     Time.month = 9;
 145:ds1302.c      ****     }
 146:ds1302.c      ****     else if (__DATE__[0] == 'O'){
 147:ds1302.c      ****     Time.month = 10;
 148:ds1302.c      ****     }
 149:ds1302.c      ****     else if (__DATE__[0] == 'N'){
 150:ds1302.c      ****     Time.month = 11;
 151:ds1302.c      ****     }
 152:ds1302.c      ****     else if (__DATE__[0] == 'D'){
 153:ds1302.c      ****     Time.month = 12;
 154:ds1302.c      ****     }
 155:ds1302.c      ****     data_write(0x8E,0x00);
 486              		.loc 1 155 0
 487 0002 0021     		movs	r1, #0
 488 0004 8E20     		movs	r0, #142
 489 0006 FFF7FEFF 		bl	data_write
 490              	.LVL87:
 156:ds1302.c      ****     data_write(0x80,Time.second);
 491              		.loc 1 156 0
 492 000a 1321     		movs	r1, #19
 493 000c 8020     		movs	r0, #128
 494 000e FFF7FEFF 		bl	data_write
 495              	.LVL88:
 157:ds1302.c      ****     data_write(0x82,Time.minute);
 496              		.loc 1 157 0
 497 0012 4821     		movs	r1, #72
 498 0014 8220     		movs	r0, #130
 499 0016 FFF7FEFF 		bl	data_write
 500              	.LVL89:
 158:ds1302.c      ****     data_write(0x84,Time.hour);
 501              		.loc 1 158 0
 502 001a 1621     		movs	r1, #22
 503 001c 8420     		movs	r0, #132
 504 001e FFF7FEFF 		bl	data_write
 505              	.LVL90:
 159:ds1302.c      ****     data_write(0x86,Time.date);
 506              		.loc 1 159 0
 507 0022 1021     		movs	r1, #16
 508 0024 8620     		movs	r0, #134
 509 0026 FFF7FEFF 		bl	data_write
 510              	.LVL91:
 160:ds1302.c      ****     data_write(0x88,Time.month);
 511              		.loc 1 160 0
 512 002a 0821     		movs	r1, #8
 513 002c 8820     		movs	r0, #136
 514 002e FFF7FEFF 		bl	data_write
 515              	.LVL92:
 161:ds1302.c      ****     data_write(0x8c,Time.year);
ARM GAS  C:\Users\dan\AppData\Local\Temp\ccTyD7iX.s 			page 13


 516              		.loc 1 161 0
 517 0032 2121     		movs	r1, #33
 518 0034 8C20     		movs	r0, #140
 519 0036 FFF7FEFF 		bl	data_write
 520              	.LVL93:
 162:ds1302.c      ****     data_write(0x8E,0x80);
 521              		.loc 1 162 0
 522 003a 8021     		movs	r1, #128
 523 003c 8E20     		movs	r0, #142
 524 003e FFF7FEFF 		bl	data_write
 525              	.LVL94:
 526 0042 08BD     		pop	{r3, pc}
 527              		.cfi_endproc
 528              	.LFE68:
 529              		.size	DS1302_Update_Time, .-DS1302_Update_Time
 530              		.text
 531              	.Letext0:
 532              		.file 2 "c:\\program files (x86)\\cypress\\psoc creator\\4.4\\psoc creator\\import\\gnu\\arm\\5.4.
 533              		.file 3 "c:\\program files (x86)\\cypress\\psoc creator\\4.4\\psoc creator\\import\\gnu\\arm\\5.4.
 534              		.file 4 "Generated_Source\\PSoC5/cytypes.h"
 535              		.file 5 "ds1302.h"
 536              		.file 6 "Generated_Source\\PSoC5/dat.h"
 537              		.file 7 "Generated_Source\\PSoC5/ce.h"
 538              		.file 8 "Generated_Source\\PSoC5/sclk.h"
 539              		.file 9 "Generated_Source\\PSoC5/CyLib.h"
 540              		.file 10 "Generated_Source\\PSoC5/core_cm3.h"